; ModuleID = '31/1473.c'
source_filename = "31/1473.c"
target datalayout = "e-m:e-p270:32:32-p271:32:32-p272:64:64-i64:64-f80:128-n8:16:32:64-S128"
target triple = "x86_64-pc-linux-gnu"

%struct.student = type { [10 x i8], [30 x i8], [2 x i8], [5 x i8], [10 x i8], [20 x i8], %struct.student* }

@.str = private unnamed_addr constant [3 x i8] c"%s\00", align 1
@.str.1 = private unnamed_addr constant [4 x i8] c"end\00", align 1
@.str.2 = private unnamed_addr constant [11 x i8] c"%s%s%s%s%s\00", align 1
@.str.3 = private unnamed_addr constant [19 x i8] c"%s %s %s %s %s %s\0A\00", align 1

; Function Attrs: noinline nounwind uwtable
define dso_local %struct.student* @create() #0 {
  %1 = alloca %struct.student*, align 8
  %2 = alloca %struct.student*, align 8
  %3 = call noalias i8* @malloc(i64 88) #4
  %4 = bitcast i8* %3 to %struct.student*
  store %struct.student* %4, %struct.student** %1, align 8
  %5 = load %struct.student*, %struct.student** %1, align 8
  %6 = getelementptr inbounds %struct.student, %struct.student* %5, i32 0, i32 0
  %7 = getelementptr inbounds [10 x i8], [10 x i8]* %6, i64 0, i64 0
  %8 = call i32 (i8*, ...) @__isoc99_scanf(i8* getelementptr inbounds ([3 x i8], [3 x i8]* @.str, i64 0, i64 0), i8* %7)
  %9 = load %struct.student*, %struct.student** %1, align 8
  %10 = getelementptr inbounds %struct.student, %struct.student* %9, i32 0, i32 0
  %11 = getelementptr inbounds [10 x i8], [10 x i8]* %10, i64 0, i64 0
  %12 = call i32 @strcmp(i8* %11, i8* getelementptr inbounds ([4 x i8], [4 x i8]* @.str.1, i64 0, i64 0)) #5
  %13 = icmp ne i32 %12, 0
  br i1 %13, label %14, label %34

14:                                               ; preds = %0
  %15 = load %struct.student*, %struct.student** %1, align 8
  %16 = getelementptr inbounds %struct.student, %struct.student* %15, i32 0, i32 1
  %17 = getelementptr inbounds [30 x i8], [30 x i8]* %16, i64 0, i64 0
  %18 = load %struct.student*, %struct.student** %1, align 8
  %19 = getelementptr inbounds %struct.student, %struct.student* %18, i32 0, i32 2
  %20 = getelementptr inbounds [2 x i8], [2 x i8]* %19, i64 0, i64 0
  %21 = load %struct.student*, %struct.student** %1, align 8
  %22 = getelementptr inbounds %struct.student, %struct.student* %21, i32 0, i32 3
  %23 = getelementptr inbounds [5 x i8], [5 x i8]* %22, i64 0, i64 0
  %24 = load %struct.student*, %struct.student** %1, align 8
  %25 = getelementptr inbounds %struct.student, %struct.student* %24, i32 0, i32 4
  %26 = getelementptr inbounds [10 x i8], [10 x i8]* %25, i64 0, i64 0
  %27 = load %struct.student*, %struct.student** %1, align 8
  %28 = getelementptr inbounds %struct.student, %struct.student* %27, i32 0, i32 5
  %29 = getelementptr inbounds [20 x i8], [20 x i8]* %28, i64 0, i64 0
  %30 = call i32 (i8*, ...) @__isoc99_scanf(i8* getelementptr inbounds ([11 x i8], [11 x i8]* @.str.2, i64 0, i64 0), i8* %17, i8* %20, i8* %23, i8* %26, i8* %29)
  %31 = load %struct.student*, %struct.student** %1, align 8
  store %struct.student* %31, %struct.student** %2, align 8
  %32 = load %struct.student*, %struct.student** %1, align 8
  %33 = getelementptr inbounds %struct.student, %struct.student* %32, i32 0, i32 6
  store %struct.student* null, %struct.student** %33, align 8
  br label %34

34:                                               ; preds = %14, %0
  br label %35

35:                                               ; preds = %74, %34
  %36 = load %struct.student*, %struct.student** %1, align 8
  %37 = getelementptr inbounds %struct.student, %struct.student* %36, i32 0, i32 0
  %38 = getelementptr inbounds [10 x i8], [10 x i8]* %37, i64 0, i64 0
  %39 = call i32 @strcmp(i8* %38, i8* getelementptr inbounds ([4 x i8], [4 x i8]* @.str.1, i64 0, i64 0)) #5
  %40 = icmp ne i32 %39, 0
  br i1 %40, label %41, label %75

41:                                               ; preds = %35
  %42 = call noalias i8* @malloc(i64 88) #4
  %43 = bitcast i8* %42 to %struct.student*
  store %struct.student* %43, %struct.student** %1, align 8
  %44 = load %struct.student*, %struct.student** %1, align 8
  %45 = getelementptr inbounds %struct.student, %struct.student* %44, i32 0, i32 0
  %46 = getelementptr inbounds [10 x i8], [10 x i8]* %45, i64 0, i64 0
  %47 = call i32 (i8*, ...) @__isoc99_scanf(i8* getelementptr inbounds ([3 x i8], [3 x i8]* @.str, i64 0, i64 0), i8* %46)
  %48 = load %struct.student*, %struct.student** %1, align 8
  %49 = getelementptr inbounds %struct.student, %struct.student* %48, i32 0, i32 0
  %50 = getelementptr inbounds [10 x i8], [10 x i8]* %49, i64 0, i64 0
  %51 = call i32 @strcmp(i8* %50, i8* getelementptr inbounds ([4 x i8], [4 x i8]* @.str.1, i64 0, i64 0)) #5
  %52 = icmp ne i32 %51, 0
  br i1 %52, label %53, label %74

53:                                               ; preds = %41
  %54 = load %struct.student*, %struct.student** %1, align 8
  %55 = getelementptr inbounds %struct.student, %struct.student* %54, i32 0, i32 1
  %56 = getelementptr inbounds [30 x i8], [30 x i8]* %55, i64 0, i64 0
  %57 = load %struct.student*, %struct.student** %1, align 8
  %58 = getelementptr inbounds %struct.student, %struct.student* %57, i32 0, i32 2
  %59 = getelementptr inbounds [2 x i8], [2 x i8]* %58, i64 0, i64 0
  %60 = load %struct.student*, %struct.student** %1, align 8
  %61 = getelementptr inbounds %struct.student, %struct.student* %60, i32 0, i32 3
  %62 = getelementptr inbounds [5 x i8], [5 x i8]* %61, i64 0, i64 0
  %63 = load %struct.student*, %struct.student** %1, align 8
  %64 = getelementptr inbounds %struct.student, %struct.student* %63, i32 0, i32 4
  %65 = getelementptr inbounds [10 x i8], [10 x i8]* %64, i64 0, i64 0
  %66 = load %struct.student*, %struct.student** %1, align 8
  %67 = getelementptr inbounds %struct.student, %struct.student* %66, i32 0, i32 5
  %68 = getelementptr inbounds [20 x i8], [20 x i8]* %67, i64 0, i64 0
  %69 = call i32 (i8*, ...) @__isoc99_scanf(i8* getelementptr inbounds ([11 x i8], [11 x i8]* @.str.2, i64 0, i64 0), i8* %56, i8* %59, i8* %62, i8* %65, i8* %68)
  %70 = load %struct.student*, %struct.student** %2, align 8
  %71 = load %struct.student*, %struct.student** %1, align 8
  %72 = getelementptr inbounds %struct.student, %struct.student* %71, i32 0, i32 6
  store %struct.student* %70, %struct.student** %72, align 8
  %73 = load %struct.student*, %struct.student** %1, align 8
  store %struct.student* %73, %struct.student** %2, align 8
  br label %74

74:                                               ; preds = %53, %41
  br label %35

75:                                               ; preds = %35
  %76 = load %struct.student*, %struct.student** %2, align 8
  ret %struct.student* %76
}

; Function Attrs: nounwind
declare dso_local noalias i8* @malloc(i64) #1

declare dso_local i32 @__isoc99_scanf(i8*, ...) #2

; Function Attrs: nounwind readonly
declare dso_local i32 @strcmp(i8*, i8*) #3

; Function Attrs: noinline nounwind uwtable
define dso_local void @main() #0 {
  %1 = alloca %struct.student*, align 8
  %2 = call %struct.student* @create()
  store %struct.student* %2, %struct.student** %1, align 8
  br label %3

3:                                                ; preds = %6, %0
  %4 = load %struct.student*, %struct.student** %1, align 8
  %5 = icmp ne %struct.student* %4, null
  br i1 %5, label %6, label %29

6:                                                ; preds = %3
  %7 = load %struct.student*, %struct.student** %1, align 8
  %8 = getelementptr inbounds %struct.student, %struct.student* %7, i32 0, i32 0
  %9 = getelementptr inbounds [10 x i8], [10 x i8]* %8, i64 0, i64 0
  %10 = load %struct.student*, %struct.student** %1, align 8
  %11 = getelementptr inbounds %struct.student, %struct.student* %10, i32 0, i32 1
  %12 = getelementptr inbounds [30 x i8], [30 x i8]* %11, i64 0, i64 0
  %13 = load %struct.student*, %struct.student** %1, align 8
  %14 = getelementptr inbounds %struct.student, %struct.student* %13, i32 0, i32 2
  %15 = getelementptr inbounds [2 x i8], [2 x i8]* %14, i64 0, i64 0
  %16 = load %struct.student*, %struct.student** %1, align 8
  %17 = getelementptr inbounds %struct.student, %struct.student* %16, i32 0, i32 3
  %18 = getelementptr inbounds [5 x i8], [5 x i8]* %17, i64 0, i64 0
  %19 = load %struct.student*, %struct.student** %1, align 8
  %20 = getelementptr inbounds %struct.student, %struct.student* %19, i32 0, i32 4
  %21 = getelementptr inbounds [10 x i8], [10 x i8]* %20, i64 0, i64 0
  %22 = load %struct.student*, %struct.student** %1, align 8
  %23 = getelementptr inbounds %struct.student, %struct.student* %22, i32 0, i32 5
  %24 = getelementptr inbounds [20 x i8], [20 x i8]* %23, i64 0, i64 0
  %25 = call i32 (i8*, ...) @printf(i8* getelementptr inbounds ([19 x i8], [19 x i8]* @.str.3, i64 0, i64 0), i8* %9, i8* %12, i8* %15, i8* %18, i8* %21, i8* %24)
  %26 = load %struct.student*, %struct.student** %1, align 8
  %27 = getelementptr inbounds %struct.student, %struct.student* %26, i32 0, i32 6
  %28 = load %struct.student*, %struct.student** %27, align 8
  store %struct.student* %28, %struct.student** %1, align 8
  br label %3

29:                                               ; preds = %3
  ret void
}

declare dso_local i32 @printf(i8*, ...) #2


!llvm.module.flags = !{!0}
!llvm.ident = !{!1}

!0 = !{i32 1, !"wchar_size", i32 4}
!1 = !{!"clang version 10.0.0-4ubuntu1 "}
